; ModuleID = '40/3159.c'
source_filename = "40/3159.c"
target datalayout = "e-m:e-p270:32:32-p271:32:32-p272:64:64-i64:64-f80:128-n8:16:32:64-S128"
target triple = "x86_64-pc-linux-gnu"

@.str = private unnamed_addr constant [5 x i8] c"%lf\0A\00", align 1
@.str.1 = private unnamed_addr constant [4 x i8] c"%lf\00", align 1
@.str.2 = private unnamed_addr constant [14 x i8] c"Invalid input\00", align 1
@.str.3 = private unnamed_addr constant [5 x i8] c"%.4f\00", align 1

; Function Attrs: noinline nounwind uwtable
define dso_local i32 @main() #0 {
  %1 = alloca i32, align 4
  %2 = alloca double, align 8
  %3 = alloca double, align 8
  %4 = alloca double, align 8
  %5 = alloca double, align 8
  %6 = alloca double, align 8
  %7 = alloca double, align 8
  %8 = alloca double, align 8
  %9 = alloca double, align 8
  %10 = alloca double, align 8
  store i32 0, i32* %1, align 4
  store double 0.000000e+00, double* %6, align 8
  store double 0.000000e+00, double* %7, align 8
  store double 0.000000e+00, double* %8, align 8
  store double 0.000000e+00, double* %9, align 8
  store double 0.000000e+00, double* %10, align 8
  %11 = call i32 (i8*, ...) @__isoc99_scanf(i8* getelementptr inbounds ([5 x i8], [5 x i8]* @.str, i64 0, i64 0), double* %2)
  %12 = call i32 (i8*, ...) @__isoc99_scanf(i8* getelementptr inbounds ([5 x i8], [5 x i8]* @.str, i64 0, i64 0), double* %3)
  %13 = call i32 (i8*, ...) @__isoc99_scanf(i8* getelementptr inbounds ([5 x i8], [5 x i8]* @.str, i64 0, i64 0), double* %4)
  %14 = call i32 (i8*, ...) @__isoc99_scanf(i8* getelementptr inbounds ([5 x i8], [5 x i8]* @.str, i64 0, i64 0), double* %5)
  %15 = call i32 (i8*, ...) @__isoc99_scanf(i8* getelementptr inbounds ([4 x i8], [4 x i8]* @.str.1, i64 0, i64 0), double* %8)
  %16 = load double, double* %2, align 8
  %17 = load double, double* %3, align 8
  %18 = fadd double %16, %17
  %19 = load double, double* %4, align 8
  %20 = fadd double %18, %19
  %21 = load double, double* %5, align 8
  %22 = fadd double %20, %21
  %23 = fdiv double %22, 2.000000e+00
  store double %23, double* %6, align 8
  %24 = load double, double* %8, align 8
  %25 = fmul double %24, 0x400921FB4D12D84A
  %26 = fdiv double %25, 3.600000e+02
  %27 = call double @cos(double %26) #3
  %28 = load double, double* %8, align 8
  %29 = fmul double %28, 0x400921FB4D12D84A
  %30 = fdiv double %29, 3.600000e+02
  %31 = call double @cos(double %30) #3
  %32 = fmul double %27, %31
  store double %32, double* %10, align 8
  %33 = load double, double* %6, align 8
  %34 = load double, double* %2, align 8
  %35 = fsub double %33, %34
  %36 = load double, double* %6, align 8
  %37 = load double, double* %3, align 8
  %38 = fsub double %36, %37
  %39 = fmul double %35, %38
  %40 = load double, double* %6, align 8
  %41 = load double, double* %4, align 8
  %42 = fsub double %40, %41
  %43 = fmul double %39, %42
  %44 = load double, double* %6, align 8
  %45 = load double, double* %5, align 8
  %46 = fsub double %44, %45
  %47 = fmul double %43, %46
  %48 = load double, double* %2, align 8
  %49 = load double, double* %3, align 8
  %50 = fmul double %48, %49
  %51 = load double, double* %4, align 8
  %52 = fmul double %50, %51
  %53 = load double, double* %5, align 8
  %54 = fmul double %52, %53
  %55 = load double, double* %10, align 8
  %56 = fmul double %54, %55
  %57 = fsub double %47, %56
  store double %57, double* %7, align 8
  %58 = load double, double* %7, align 8
  %59 = fcmp olt double %58, 0.000000e+00
  br i1 %59, label %60, label %62

60:                                               ; preds = %0
  %61 = call i32 (i8*, ...) @printf(i8* getelementptr inbounds ([14 x i8], [14 x i8]* @.str.2, i64 0, i64 0))
  br label %67

62:                                               ; preds = %0
  %63 = load double, double* %7, align 8
  %64 = call double @sqrt(double %63) #3
  store double %64, double* %9, align 8
  %65 = load double, double* %9, align 8
  %66 = call i32 (i8*, ...) @printf(i8* getelementptr inbounds ([5 x i8], [5 x i8]* @.str.3, i64 0, i64 0), double %65)
  br label %67

67:                                               ; preds = %62, %60
  ret i32 0
}

declare dso_local i32 @__isoc99_scanf(i8*, ...) #1

; Function Attrs: nounwind
declare dso_local double @cos(double) #2

declare dso_local i32 @printf(i8*, ...) #1

; Function Attrs: nounwind
declare dso_local double @sqrt(double) #2


!llvm.module.flags = !{!0}
!llvm.ident = !{!1}

!0 = !{i32 1, !"wchar_size", i32 4}
!1 = !{!"clang version 10.0.0-4ubuntu1 "}
